target datalayout = "e-m:e-p270:32:32-p271:32:32-p272:64:64-i64:64-i128:128-f80:128-n8:16:32:64-S128"
target triple = "x86_64-pc-linux-gnu"

%class.ABstats = type { [8 x %"class.std::__cxx11::basic_string"], %struct.ABtracker, %struct.ABtracker, [2 x %struct.ABtracker], [8 x %struct.ABtracker] }
%"class.std::__cxx11::basic_string" = type { %"struct.std::__cxx11::basic_string<char>::_Alloc_hider", i64, %union.anon }
%"struct.std::__cxx11::basic_string<char>::_Alloc_hider" = type { ptr }
%union.anon = type { i64, [8 x i8] }
%struct.ABtracker = type { [49 x i32], i32, i32, i32, i32 }

@.str = private unnamed_addr constant [15 x i8] c"Target decided\00", align 1
@.str.1 = private unnamed_addr constant [11 x i8] c"depth == 0\00", align 1
@.str.2 = private unnamed_addr constant [12 x i8] c"QuickTricks\00", align 1
@.str.3 = private unnamed_addr constant [16 x i8] c"QuickTricks 2nd\00", align 1
@.str.4 = private unnamed_addr constant [12 x i8] c"LaterTricks\00", align 1
@.str.5 = private unnamed_addr constant [12 x i8] c"Main lookup\00", align 1
@.str.6 = private unnamed_addr constant [13 x i8] c"Other lookup\00", align 1
@.str.7 = private unnamed_addr constant [11 x i8] c"Move trial\00", align 1

; Function Attrs: mustprogress uwtable
define void @_ZN7ABstats8SetNamesEv(ptr noundef nonnull align 8 dereferenceable(2800) %0) #4 align 2 {
  %2 = alloca ptr, align 8
  store ptr %0, ptr %2, align 8
  %3 = load ptr, ptr %2, align 8
  %4 = getelementptr inbounds nuw %class.ABstats, ptr %3, i32 0, i32 0
  %5 = getelementptr inbounds [8 x %"class.std::__cxx11::basic_string"], ptr %4, i64 0, i64 0
  %6 = call noundef nonnull align 8 dereferenceable(32) ptr @_ZNSt7__cxx1112basic_stringIcSt11char_traitsIcESaIcEEaSEPKc(ptr noundef nonnull align 8 dereferenceable(32) %5, ptr noundef @.str)
  %7 = getelementptr inbounds nuw %class.ABstats, ptr %3, i32 0, i32 0
  %8 = getelementptr inbounds [8 x %"class.std::__cxx11::basic_string"], ptr %7, i64 0, i64 1
  %9 = call noundef nonnull align 8 dereferenceable(32) ptr @_ZNSt7__cxx1112basic_stringIcSt11char_traitsIcESaIcEEaSEPKc(ptr noundef nonnull align 8 dereferenceable(32) %8, ptr noundef @.str.1)
  %10 = getelementptr inbounds nuw %class.ABstats, ptr %3, i32 0, i32 0
  %11 = getelementptr inbounds [8 x %"class.std::__cxx11::basic_string"], ptr %10, i64 0, i64 2
  %12 = call noundef nonnull align 8 dereferenceable(32) ptr @_ZNSt7__cxx1112basic_stringIcSt11char_traitsIcESaIcEEaSEPKc(ptr noundef nonnull align 8 dereferenceable(32) %11, ptr noundef @.str.2)
  %13 = getelementptr inbounds nuw %class.ABstats, ptr %3, i32 0, i32 0
  %14 = getelementptr inbounds [8 x %"class.std::__cxx11::basic_string"], ptr %13, i64 0, i64 3
  %15 = call noundef nonnull align 8 dereferenceable(32) ptr @_ZNSt7__cxx1112basic_stringIcSt11char_traitsIcESaIcEEaSEPKc(ptr noundef nonnull align 8 dereferenceable(32) %14, ptr noundef @.str.3)
  %16 = getelementptr inbounds nuw %class.ABstats, ptr %3, i32 0, i32 0
  %17 = getelementptr inbounds [8 x %"class.std::__cxx11::basic_string"], ptr %16, i64 0, i64 4
  %18 = call noundef nonnull align 8 dereferenceable(32) ptr @_ZNSt7__cxx1112basic_stringIcSt11char_traitsIcESaIcEEaSEPKc(ptr noundef nonnull align 8 dereferenceable(32) %17, ptr noundef @.str.4)
  %19 = getelementptr inbounds nuw %class.ABstats, ptr %3, i32 0, i32 0
  %20 = getelementptr inbounds [8 x %"class.std::__cxx11::basic_string"], ptr %19, i64 0, i64 5
  %21 = call noundef nonnull align 8 dereferenceable(32) ptr @_ZNSt7__cxx1112basic_stringIcSt11char_traitsIcESaIcEEaSEPKc(ptr noundef nonnull align 8 dereferenceable(32) %20, ptr noundef @.str.5)
  %22 = getelementptr inbounds nuw %class.ABstats, ptr %3, i32 0, i32 0
  %23 = getelementptr inbounds [8 x %"class.std::__cxx11::basic_string"], ptr %22, i64 0, i64 6
  %24 = call noundef nonnull align 8 dereferenceable(32) ptr @_ZNSt7__cxx1112basic_stringIcSt11char_traitsIcESaIcEEaSEPKc(ptr noundef nonnull align 8 dereferenceable(32) %23, ptr noundef @.str.6)
  %25 = getelementptr inbounds nuw %class.ABstats, ptr %3, i32 0, i32 0
  %26 = getelementptr inbounds [8 x %"class.std::__cxx11::basic_string"], ptr %25, i64 0, i64 7
  %27 = call noundef nonnull align 8 dereferenceable(32) ptr @_ZNSt7__cxx1112basic_stringIcSt11char_traitsIcESaIcEEaSEPKc(ptr noundef nonnull align 8 dereferenceable(32) %26, ptr noundef @.str.7)
  ret void
}

; Function Attrs: mustprogress nounwind uwtable
define void @_ZN7ABstats5ResetEv(ptr noundef nonnull align 8 dereferenceable(2800) %0) #5 align 2 {
  %2 = alloca ptr, align 8
  %3 = alloca i32, align 4
  %4 = alloca i32, align 4
  %5 = alloca i32, align 4
  %6 = alloca i32, align 4
  %7 = alloca i32, align 4
  store ptr %0, ptr %2, align 8
  %8 = load ptr, ptr %2, align 8
  store i32 0, ptr %3, align 4
  br label %9

9:                                                ; preds = %18, %1
  %10 = load i32, ptr %3, align 4
  %11 = icmp slt i32 %10, 49
  br i1 %11, label %12, label %21

12:                                               ; preds = %9
  %13 = getelementptr inbounds nuw %class.ABstats, ptr %8, i32 0, i32 1
  %14 = getelementptr inbounds nuw %struct.ABtracker, ptr %13, i32 0, i32 0
  %15 = load i32, ptr %3, align 4
  %16 = sext i32 %15 to i64
  %17 = getelementptr inbounds [49 x i32], ptr %14, i64 0, i64 %16
  store i32 0, ptr %17, align 4
  br label %18

18:                                               ; preds = %12
  %19 = load i32, ptr %3, align 4
  %20 = add nsw i32 %19, 1
  store i32 %20, ptr %3, align 4
  br label %9, !llvm.loop !4

21:                                               ; preds = %9
  %22 = getelementptr inbounds nuw %class.ABstats, ptr %8, i32 0, i32 1
  %23 = getelementptr inbounds nuw %struct.ABtracker, ptr %22, i32 0, i32 1
  store i32 0, ptr %23, align 4
  %24 = getelementptr inbounds nuw %class.ABstats, ptr %8, i32 0, i32 1
  %25 = getelementptr inbounds nuw %struct.ABtracker, ptr %24, i32 0, i32 2
  store i32 0, ptr %25, align 8
  store i32 0, ptr %4, align 4
  br label %26

26:                                               ; preds = %56, %21
  %27 = load i32, ptr %4, align 4
  %28 = icmp slt i32 %27, 2
  br i1 %28, label %29, label %59

29:                                               ; preds = %26
  store i32 0, ptr %5, align 4
  br label %30

30:                                               ; preds = %42, %29
  %31 = load i32, ptr %5, align 4
  %32 = icmp slt i32 %31, 49
  br i1 %32, label %33, label %45

33:                                               ; preds = %30
  %34 = getelementptr inbounds nuw %class.ABstats, ptr %8, i32 0, i32 3
  %35 = load i32, ptr %4, align 4
  %36 = sext i32 %35 to i64
  %37 = getelementptr inbounds [2 x %struct.ABtracker], ptr %34, i64 0, i64 %36
  %38 = getelementptr inbounds nuw %struct.ABtracker, ptr %37, i32 0, i32 0
  %39 = load i32, ptr %5, align 4
  %40 = sext i32 %39 to i64
  %41 = getelementptr inbounds [49 x i32], ptr %38, i64 0, i64 %40
  store i32 0, ptr %41, align 4
  br label %42

42:                                               ; preds = %33
  %43 = load i32, ptr %5, align 4
  %44 = add nsw i32 %43, 1
  store i32 %44, ptr %5, align 4
  br label %30, !llvm.loop !6

45:                                               ; preds = %30
  %46 = getelementptr inbounds nuw %class.ABstats, ptr %8, i32 0, i32 3
  %47 = load i32, ptr %4, align 4
  %48 = sext i32 %47 to i64
  %49 = getelementptr inbounds [2 x %struct.ABtracker], ptr %46, i64 0, i64 %48
  %50 = getelementptr inbounds nuw %struct.ABtracker, ptr %49, i32 0, i32 1
  store i32 0, ptr %50, align 4
  %51 = getelementptr inbounds nuw %class.ABstats, ptr %8, i32 0, i32 3
  %52 = load i32, ptr %4, align 4
  %53 = sext i32 %52 to i64
  %54 = getelementptr inbounds [2 x %struct.ABtracker], ptr %51, i64 0, i64 %53
  %55 = getelementptr inbounds nuw %struct.ABtracker, ptr %54, i32 0, i32 2
  store i32 0, ptr %55, align 4
  br label %56

56:                                               ; preds = %45
  %57 = load i32, ptr %4, align 4
  %58 = add nsw i32 %57, 1
  store i32 %58, ptr %4, align 4
  br label %26, !llvm.loop !7

59:                                               ; preds = %26
  store i32 0, ptr %6, align 4
  br label %60

60:                                               ; preds = %90, %59
  %61 = load i32, ptr %6, align 4
  %62 = icmp slt i32 %61, 8
  br i1 %62, label %63, label %93

63:                                               ; preds = %60
  store i32 0, ptr %7, align 4
  br label %64

64:                                               ; preds = %76, %63
  %65 = load i32, ptr %7, align 4
  %66 = icmp slt i32 %65, 49
  br i1 %66, label %67, label %79

67:                                               ; preds = %64
  %68 = getelementptr inbounds nuw %class.ABstats, ptr %8, i32 0, i32 4
  %69 = load i32, ptr %6, align 4
  %70 = sext i32 %69 to i64
  %71 = getelementptr inbounds [8 x %struct.ABtracker], ptr %68, i64 0, i64 %70
  %72 = getelementptr inbounds nuw %struct.ABtracker, ptr %71, i32 0, i32 0
  %73 = load i32, ptr %7, align 4
  %74 = sext i32 %73 to i64
  %75 = getelementptr inbounds [49 x i32], ptr %72, i64 0, i64 %74
  store i32 0, ptr %75, align 4
  br label %76

76:                                               ; preds = %67
  %77 = load i32, ptr %7, align 4
  %78 = add nsw i32 %77, 1
  store i32 %78, ptr %7, align 4
  br label %64, !llvm.loop !8

79:                                               ; preds = %64
  %80 = getelementptr inbounds nuw %class.ABstats, ptr %8, i32 0, i32 4
  %81 = load i32, ptr %6, align 4
  %82 = sext i32 %81 to i64
  %83 = getelementptr inbounds [8 x %struct.ABtracker], ptr %80, i64 0, i64 %82
  %84 = getelementptr inbounds nuw %struct.ABtracker, ptr %83, i32 0, i32 1
  store i32 0, ptr %84, align 4
  %85 = getelementptr inbounds nuw %class.ABstats, ptr %8, i32 0, i32 4
  %86 = load i32, ptr %6, align 4
  %87 = sext i32 %86 to i64
  %88 = getelementptr inbounds [8 x %struct.ABtracker], ptr %85, i64 0, i64 %87
  %89 = getelementptr inbounds nuw %struct.ABtracker, ptr %88, i32 0, i32 2
  store i32 0, ptr %89, align 4
  br label %90

90:                                               ; preds = %79
  %91 = load i32, ptr %6, align 4
  %92 = add nsw i32 %91, 1
  store i32 %92, ptr %6, align 4
  br label %60, !llvm.loop !9

93:                                               ; preds = %60
  ret void
}

; Function Attrs: mustprogress uwtable
define void @_ZN7ABstatsC2Ev(ptr noundef nonnull align 8 dereferenceable(2800) %0) unnamed_addr #4 align 2 personality ptr @__gxx_personality_v0 {
  %2 = alloca ptr, align 8
  %3 = alloca ptr, align 8
  %4 = alloca i32, align 4
  store ptr %0, ptr %2, align 8
  %5 = load ptr, ptr %2, align 8
  %6 = getelementptr inbounds nuw %class.ABstats, ptr %5, i32 0, i32 0
  %7 = getelementptr inbounds [8 x %"class.std::__cxx11::basic_string"], ptr %6, i32 0, i32 0
  %8 = getelementptr inbounds %"class.std::__cxx11::basic_string", ptr %7, i64 8
  br label %9

9:                                                ; preds = %9, %1
  %10 = phi ptr [ %7, %1 ], [ %11, %9 ]
  call void @_ZNSt7__cxx1112basic_stringIcSt11char_traitsIcESaIcEEC1Ev(ptr noundef nonnull align 8 dereferenceable(32) %10) #3
  %11 = getelementptr inbounds %"class.std::__cxx11::basic_string", ptr %10, i64 1
  %12 = icmp eq ptr %11, %8
  br i1 %12, label %13, label %9

13:                                               ; preds = %9
  invoke void @_ZN7ABstats5ResetEv(ptr noundef nonnull align 8 dereferenceable(2800) %5)
          to label %14 unwind label %16

14:                                               ; preds = %13
  invoke void @_ZN7ABstats8SetNamesEv(ptr noundef nonnull align 8 dereferenceable(2800) %5)
          to label %15 unwind label %16

15:                                               ; preds = %14
  ret void

16:                                               ; preds = %14, %13
  %17 = landingpad { ptr, i32 }
          cleanup
  %18 = extractvalue { ptr, i32 } %17, 0
  store ptr %18, ptr %3, align 8
  %19 = extractvalue { ptr, i32 } %17, 1
  store i32 %19, ptr %4, align 4
  %20 = getelementptr inbounds [8 x %"class.std::__cxx11::basic_string"], ptr %6, i32 0, i32 0
  %21 = getelementptr inbounds %"class.std::__cxx11::basic_string", ptr %20, i64 8
  br label %22

22:                                               ; preds = %22, %16
  %23 = phi ptr [ %21, %16 ], [ %24, %22 ]
  %24 = getelementptr inbounds %"class.std::__cxx11::basic_string", ptr %23, i64 -1
  call void @_ZNSt7__cxx1112basic_stringIcSt11char_traitsIcESaIcEED1Ev(ptr noundef nonnull align 8 dereferenceable(32) %24) #3
  %25 = icmp eq ptr %24, %20
  br i1 %25, label %26, label %22

26:                                               ; preds = %22
  br label %27

27:                                               ; preds = %26
  %28 = load ptr, ptr %3, align 8
  %29 = load i32, ptr %4, align 4
  %30 = insertvalue { ptr, i32 } poison, ptr %28, 0
  %31 = insertvalue { ptr, i32 } %30, i32 %29, 1
  resume { ptr, i32 } %31
}